; Function Attrs: mustprogress nounwind uwtable
define internal void @_ZN12_GLOBAL__N_123HermesABIRuntimeWrapperD0Ev(ptr noundef nonnull align 8 dereferenceable(32) %this) unnamed_addr #4 align 2 personality ptr @__gxx_personality_v0 {
entry:
  store ptr getelementptr inbounds ({ [73 x ptr] }, ptr @_ZTVN12_GLOBAL__N_123HermesABIRuntimeWrapperE, i64 0, i32 0, i64 2), ptr %this, align 8
  %vtable_.i = getelementptr inbounds i8, ptr %this, i64 16
  %0 = load ptr, ptr %vtable_.i, align 8
  %1 = load ptr, ptr %0, align 8
  %abiRt_.i = getelementptr inbounds i8, ptr %this, i64 24
  %2 = load ptr, ptr %abiRt_.i, align 8
  invoke void %1(ptr noundef %2)
          to label %_ZN12_GLOBAL__N_123HermesABIRuntimeWrapperD2Ev.exit unwind label %terminate.lpad.i

terminate.lpad.i:                                 ; preds = %entry
  %3 = landingpad { ptr, i32 }
          catch ptr null
  %4 = extractvalue { ptr, i32 } %3, 0
  tail call void @__clang_call_terminate(ptr %4) #13
  unreachable

_ZN12_GLOBAL__N_123HermesABIRuntimeWrapperD2Ev.exit: ; preds = %entry
  tail call void @_ZN8facebook3jsi7RuntimeD2Ev(ptr noundef nonnull align 8 dereferenceable(8) %this) #11
  tail call void @_ZdlPv(ptr noundef nonnull %this) #12
  ret void
}